target datalayout = "e-m:e-p270:32:32-p271:32:32-p272:64:64-i64:64-i128:128-f80:128-n8:16:32:64-S128"
target triple = "x86_64-unknown-linux-gnu"

%struct.sockaddr_in = type { i16, i16, %struct.in_addr, [8 x i8] }
%struct.in_addr = type { i32 }
%struct.sockaddr_in6 = type { i16, i16, i32, %struct.in6_addr, i32 }
%struct.in6_addr = type { %union.anon }
%union.anon = type { [4 x i32] }
%struct.sockaddr_storage = type { i16, [118 x i8], i64 }
%union.__SOCKADDR_ARG = type { ptr }

@.str.22 = private unnamed_addr constant [11 x i8] c"accept: %s\00", align 1

; Function Attrs: nounwind uwtable
define internal i32 @anetGenericAccept(ptr noundef %err, i32 noundef %s, ptr noundef %sa, ptr noundef %len) #0 {
entry:
  %retval = alloca i32, align 4
  %err.addr = alloca ptr, align 8
  %s.addr = alloca i32, align 4
  %sa.addr = alloca ptr, align 8
  %len.addr = alloca ptr, align 8
  %fd = alloca i32, align 4
  %agg.tmp = alloca %union.__SOCKADDR_ARG, align 8
  store ptr %err, ptr %err.addr, align 8
  store i32 %s, ptr %s.addr, align 4
  store ptr %sa, ptr %sa.addr, align 8
  store ptr %len, ptr %len.addr, align 8
  br label %do.body

do.body:                                          ; preds = %land.end, %entry
  %0 = load i32, ptr %s.addr, align 4
  %1 = load ptr, ptr %sa.addr, align 8
  store ptr %1, ptr %agg.tmp, align 8
  %2 = load ptr, ptr %len.addr, align 8
  %coerce.dive = getelementptr inbounds %union.__SOCKADDR_ARG, ptr %agg.tmp, i32 0, i32 0
  %3 = load ptr, ptr %coerce.dive, align 8
  %call = call i32 @accept4(i32 noundef %0, ptr %3, ptr noundef %2, i32 noundef 526336)
  store i32 %call, ptr %fd, align 4
  br label %do.cond

do.cond:                                          ; preds = %do.body
  %4 = load i32, ptr %fd, align 4
  %cmp = icmp eq i32 %4, -1
  br i1 %cmp, label %land.rhs, label %land.end

land.rhs:                                         ; preds = %do.cond
  %call1 = call ptr @__errno_location() #8
  %5 = load i32, ptr %call1, align 4
  %cmp2 = icmp eq i32 %5, 4
  br label %land.end

land.end:                                         ; preds = %land.rhs, %do.cond
  %6 = phi i1 [ false, %do.cond ], [ %cmp2, %land.rhs ]
  br i1 %6, label %do.body, label %do.end, !llvm.loop !11

do.end:                                           ; preds = %land.end
  %7 = load i32, ptr %fd, align 4
  %cmp3 = icmp eq i32 %7, -1
  br i1 %cmp3, label %if.then, label %if.end

if.then:                                          ; preds = %do.end
  %8 = load ptr, ptr %err.addr, align 8
  %call4 = call ptr @__errno_location() #8
  %9 = load i32, ptr %call4, align 4
  %call5 = call ptr @strerror(i32 noundef %9) #7
  call void (ptr, ptr, ...) @anetSetError(ptr noundef %8, ptr noundef @.str.22, ptr noundef %call5)
  store i32 -1, ptr %retval, align 4
  br label %return

if.end:                                           ; preds = %do.end
  %10 = load i32, ptr %fd, align 4
  store i32 %10, ptr %retval, align 4
  br label %return

return:                                           ; preds = %if.end, %if.then
  %11 = load i32, ptr %retval, align 4
  ret i32 %11
}

; Function Attrs: nounwind uwtable
define dso_local i32 @anetTcpAccept(ptr noundef %err, i32 noundef %serversock, ptr noundef %ip, i64 noundef %ip_len, ptr noundef %port) #0 {
entry:
  %retval = alloca i32, align 4
  %err.addr = alloca ptr, align 8
  %serversock.addr = alloca i32, align 4
  %ip.addr = alloca ptr, align 8
  %ip_len.addr = alloca i64, align 8
  %port.addr = alloca ptr, align 8
  %fd = alloca i32, align 4
  %sa = alloca %struct.sockaddr_storage, align 8
  %salen = alloca i32, align 4
  %s = alloca ptr, align 8
  %s13 = alloca ptr, align 8
  store ptr %err, ptr %err.addr, align 8
  store i32 %serversock, ptr %serversock.addr, align 4
  store ptr %ip, ptr %ip.addr, align 8
  store i64 %ip_len, ptr %ip_len.addr, align 8
  store ptr %port, ptr %port.addr, align 8
  store i32 128, ptr %salen, align 4
  %0 = load ptr, ptr %err.addr, align 8
  %1 = load i32, ptr %serversock.addr, align 4
  %call = call i32 @anetGenericAccept(ptr noundef %0, i32 noundef %1, ptr noundef %sa, ptr noundef %salen)
  store i32 %call, ptr %fd, align 4
  %cmp = icmp eq i32 %call, -1
  br i1 %cmp, label %if.then, label %if.end

if.then:                                          ; preds = %entry
  store i32 -1, ptr %retval, align 4
  br label %return

if.end:                                           ; preds = %entry
  %ss_family = getelementptr inbounds %struct.sockaddr_storage, ptr %sa, i32 0, i32 0
  %2 = load i16, ptr %ss_family, align 8
  %conv = zext i16 %2 to i32
  %cmp1 = icmp eq i32 %conv, 2
  br i1 %cmp1, label %if.then3, label %if.else

if.then3:                                         ; preds = %if.end
  store ptr %sa, ptr %s, align 8
  %3 = load ptr, ptr %ip.addr, align 8
  %tobool = icmp ne ptr %3, null
  br i1 %tobool, label %if.then4, label %if.end7

if.then4:                                         ; preds = %if.then3
  %4 = load ptr, ptr %s, align 8
  %sin_addr = getelementptr inbounds %struct.sockaddr_in, ptr %4, i32 0, i32 2
  %5 = load ptr, ptr %ip.addr, align 8
  %6 = load i64, ptr %ip_len.addr, align 8
  %conv5 = trunc i64 %6 to i32
  %call6 = call ptr @inet_ntop(i32 noundef 2, ptr noundef %sin_addr, ptr noundef %5, i32 noundef %conv5) #7
  br label %if.end7

if.end7:                                          ; preds = %if.then4, %if.then3
  %7 = load ptr, ptr %port.addr, align 8
  %tobool8 = icmp ne ptr %7, null
  br i1 %tobool8, label %if.then9, label %if.end12

if.then9:                                         ; preds = %if.end7
  %8 = load ptr, ptr %s, align 8
  %sin_port = getelementptr inbounds %struct.sockaddr_in, ptr %8, i32 0, i32 1
  %9 = load i16, ptr %sin_port, align 2
  %call10 = call zeroext i16 @ntohs(i16 noundef zeroext %9) #8
  %conv11 = zext i16 %call10 to i32
  %10 = load ptr, ptr %port.addr, align 8
  store i32 %conv11, ptr %10, align 4
  br label %if.end12

if.end12:                                         ; preds = %if.then9, %if.end7
  br label %if.end24

if.else:                                          ; preds = %if.end
  store ptr %sa, ptr %s13, align 8
  %11 = load ptr, ptr %ip.addr, align 8
  %tobool14 = icmp ne ptr %11, null
  br i1 %tobool14, label %if.then15, label %if.end18

if.then15:                                        ; preds = %if.else
  %12 = load ptr, ptr %s13, align 8
  %sin6_addr = getelementptr inbounds %struct.sockaddr_in6, ptr %12, i32 0, i32 3
  %13 = load ptr, ptr %ip.addr, align 8
  %14 = load i64, ptr %ip_len.addr, align 8
  %conv16 = trunc i64 %14 to i32
  %call17 = call ptr @inet_ntop(i32 noundef 10, ptr noundef %sin6_addr, ptr noundef %13, i32 noundef %conv16) #7
  br label %if.end18

if.end18:                                         ; preds = %if.then15, %if.else
  %15 = load ptr, ptr %port.addr, align 8
  %tobool19 = icmp ne ptr %15, null
  br i1 %tobool19, label %if.then20, label %if.end23

if.then20:                                        ; preds = %if.end18
  %16 = load ptr, ptr %s13, align 8
  %sin6_port = getelementptr inbounds %struct.sockaddr_in6, ptr %16, i32 0, i32 1
  %17 = load i16, ptr %sin6_port, align 2
  %call21 = call zeroext i16 @ntohs(i16 noundef zeroext %17) #8
  %conv22 = zext i16 %call21 to i32
  %18 = load ptr, ptr %port.addr, align 8
  store i32 %conv22, ptr %18, align 4
  br label %if.end23

if.end23:                                         ; preds = %if.then20, %if.end18
  br label %if.end24

if.end24:                                         ; preds = %if.end23, %if.end12
  %19 = load i32, ptr %fd, align 4
  store i32 %19, ptr %retval, align 4
  br label %return

return:                                           ; preds = %if.end24, %if.then
  %20 = load i32, ptr %retval, align 4
  ret i32 %20
}