; Function Attrs: nounwind uwtable
define dso_local i32 @anetTcpAccept(ptr noundef %err, i32 noundef %serversock, ptr noundef %ip, i64 noundef %ip_len, ptr noundef writeonly %port) local_unnamed_addr #0 {
entry:
  %sa = alloca %struct.sockaddr_storage, align 8
  %salen = alloca i32, align 4
  store i32 128, ptr %salen, align 4
  br label %do.body.i

do.body.i:                                        ; preds = %land.rhs.i, %entry
  %call.i = call i32 @accept4(i32 noundef %serversock, ptr nonnull %sa, ptr noundef nonnull %salen, i32 noundef 526336) #10
  %cmp.i = icmp eq i32 %call.i, -1
  br i1 %cmp.i, label %land.rhs.i, label %if.end

land.rhs.i:                                       ; preds = %do.body.i
  %call1.i = tail call ptr @__errno_location() #11
  %0 = load i32, ptr %call1.i, align 4
  %cmp2.i = icmp eq i32 %0, 4
  br i1 %cmp2.i, label %do.body.i, label %anetGenericAccept.exit.thread, !llvm.loop !11

anetGenericAccept.exit.thread:                    ; preds = %land.rhs.i
  %call5.i = call ptr @strerror(i32 noundef %0) #10
  call void (ptr, ptr, ...) @anetSetError(ptr noundef %err, ptr noundef nonnull @.str.22, ptr noundef %call5.i)
  br label %return

if.end:                                           ; preds = %do.body.i
  %1 = load i16, ptr %sa, align 8
  %cmp1 = icmp eq i16 %1, 2
  %tobool.not = icmp eq ptr %ip, null
  br i1 %cmp1, label %if.then3, label %if.else

if.then3:                                         ; preds = %if.end
  br i1 %tobool.not, label %if.end7, label %if.then4

if.then4:                                         ; preds = %if.then3
  %sin_addr = getelementptr inbounds i8, ptr %sa, i64 4
  %conv5 = trunc i64 %ip_len to i32
  %call6 = call ptr @inet_ntop(i32 noundef 2, ptr noundef nonnull %sin_addr, ptr noundef nonnull %ip, i32 noundef %conv5) #10
  br label %if.end7

if.end7:                                          ; preds = %if.then4, %if.then3
  %tobool8.not = icmp eq ptr %port, null
  br i1 %tobool8.not, label %return, label %if.then9

if.then9:                                         ; preds = %if.end7
  %sin_port = getelementptr inbounds i8, ptr %sa, i64 2
  %2 = load i16, ptr %sin_port, align 2
  %call10 = call zeroext i16 @ntohs(i16 noundef zeroext %2) #11
  %conv11 = zext i16 %call10 to i32
  store i32 %conv11, ptr %port, align 4
  br label %return

if.else:                                          ; preds = %if.end
  br i1 %tobool.not, label %if.end18, label %if.then15

if.then15:                                        ; preds = %if.else
  %sin6_addr = getelementptr inbounds i8, ptr %sa, i64 8
  %conv16 = trunc i64 %ip_len to i32
  %call17 = call ptr @inet_ntop(i32 noundef 10, ptr noundef nonnull %sin6_addr, ptr noundef nonnull %ip, i32 noundef %conv16) #10
  br label %if.end18

if.end18:                                         ; preds = %if.then15, %if.else
  %tobool19.not = icmp eq ptr %port, null
  br i1 %tobool19.not, label %return, label %if.then20

if.then20:                                        ; preds = %if.end18
  %sin6_port = getelementptr inbounds i8, ptr %sa, i64 2
  %3 = load i16, ptr %sin6_port, align 2
  %call21 = call zeroext i16 @ntohs(i16 noundef zeroext %3) #11
  %conv22 = zext i16 %call21 to i32
  store i32 %conv22, ptr %port, align 4
  br label %return

return:                                           ; preds = %anetGenericAccept.exit.thread, %if.then9, %if.end7, %if.then20, %if.end18
  ret i32 %call.i
}